; Function Attrs: mustprogress uwtable
define hidden void @_ZN13expr_replacerclEP4exprR7obj_refIS0_11ast_managerERS2_I3appS3_E(ptr noundef nonnull align 8 dereferenceable(8) %0, ptr noundef %1, ptr noundef nonnull align 8 dereferenceable(16) %2, ptr noundef nonnull align 8 dereferenceable(16) %3) local_unnamed_addr #3 align 2 personality ptr @__gxx_personality_v0 {
  %5 = alloca %class.obj_ref, align 8
  call void @llvm.lifetime.start.p0(i64 16, ptr nonnull %5) #18
  %6 = load ptr, ptr %0, align 8, !tbaa !3
  %7 = getelementptr inbounds nuw i8, ptr %6, i64 16
  %8 = load ptr, ptr %7, align 8
  %9 = tail call noundef nonnull align 8 dereferenceable(976) ptr %8(ptr noundef nonnull align 8 dereferenceable(8) %0)
  store ptr null, ptr %5, align 8, !tbaa !6
  %10 = getelementptr inbounds nuw i8, ptr %5, i64 8
  store ptr %9, ptr %10, align 8, !tbaa !12
  %11 = load ptr, ptr %0, align 8, !tbaa !3
  %12 = getelementptr inbounds nuw i8, ptr %11, i64 32
  %13 = load ptr, ptr %12, align 8
  invoke void %13(ptr noundef nonnull align 8 dereferenceable(8) %0, ptr noundef %1, ptr noundef nonnull align 8 dereferenceable(16) %2, ptr noundef nonnull align 8 dereferenceable(16) %3, ptr noundef nonnull align 8 dereferenceable(16) %5)
          to label %14 unwind label %30

14:                                               ; preds = %4
  %15 = load ptr, ptr %5, align 8, !tbaa !6
  %.not.i.i = icmp eq ptr %15, null
  br i1 %.not.i.i, label %_ZN7obj_refIN18dependency_managerIN11ast_manager22expr_dependency_configEE10dependencyES1_ED2Ev.exit, label %16

16:                                               ; preds = %14
  %17 = load ptr, ptr %10, align 8, !tbaa !13
  %18 = load i32, ptr %15, align 4
  %19 = add i32 %18, 1073741823
  %20 = and i32 %19, 1073741823
  %21 = and i32 %18, -1073741824
  %22 = or disjoint i32 %20, %21
  store i32 %22, ptr %15, align 4
  %23 = and i32 %18, 1073741823
  %24 = icmp eq i32 %23, 1
  br i1 %24, label %25, label %_ZN7obj_refIN18dependency_managerIN11ast_manager22expr_dependency_configEE10dependencyES1_ED2Ev.exit

25:                                               ; preds = %16
  %26 = getelementptr inbounds nuw i8, ptr %17, i64 648
  invoke void @_ZN18dependency_managerIN11ast_manager22expr_dependency_configEE3delEPNS2_10dependencyE(ptr noundef nonnull align 8 dereferenceable(24) %26, ptr noundef nonnull %15)
          to label %_ZN7obj_refIN18dependency_managerIN11ast_manager22expr_dependency_configEE10dependencyES1_ED2Ev.exit unwind label %27

27:                                               ; preds = %25
  %28 = landingpad { ptr, i32 }
          catch ptr null
  %29 = extractvalue { ptr, i32 } %28, 0
  call void @__clang_call_terminate(ptr %29) #19
  unreachable

_ZN7obj_refIN18dependency_managerIN11ast_manager22expr_dependency_configEE10dependencyES1_ED2Ev.exit: ; preds = %14, %16, %25
  call void @llvm.lifetime.end.p0(i64 16, ptr nonnull %5) #18
  ret void

30:                                               ; preds = %4
  %31 = landingpad { ptr, i32 }
          cleanup
  call void @_ZN7obj_refIN18dependency_managerIN11ast_manager22expr_dependency_configEE10dependencyES1_ED2Ev(ptr noundef nonnull align 8 dereferenceable(16) %5) #18
  call void @llvm.lifetime.end.p0(i64 16, ptr nonnull %5) #18
  resume { ptr, i32 } %31
}